; Function Attrs: mustprogress nofree norecurse nosync nounwind willreturn memory(read, inaccessiblemem: none) uwtable
define noundef i32 @_ZNK19OpenColorIO_v2_5dev7Context17getNumSearchPathsEv(ptr noundef nonnull readonly align 8 captures(none) dereferenceable(8) %0) local_unnamed_addr #9 align 2 {
  %2 = load ptr, ptr %0, align 8, !tbaa !61
  %3 = getelementptr inbounds nuw i8, ptr %2, i64 8
  %4 = load ptr, ptr %3, align 8, !tbaa !68
  %5 = load ptr, ptr %2, align 8, !tbaa !67
  %6 = ptrtoint ptr %4 to i64
  %7 = ptrtoint ptr %5 to i64
  %8 = sub i64 %6, %7
  %9 = lshr exact i64 %8, 5
  %10 = trunc i64 %9 to i32
  ret i32 %10
}